; Function Attrs: mustprogress uwtable
define void @_ZN32pxrInternal_v0_24__pxrReserved__25ArJoinPackageRelativePathERKNSt7__cxx1112basic_stringIcSt11char_traitsIcESaIcEEES7_(ptr dead_on_unwind noalias writable sret(%"class.std::__cxx11::basic_string") align 8 %0, ptr noundef nonnull align 8 dereferenceable(32) %1, ptr noundef nonnull align 8 dereferenceable(32) %2) local_unnamed_addr #2 {
  %4 = alloca [2 x ptr], align 16
  store ptr %1, ptr %4, align 16
  %5 = getelementptr inbounds i8, ptr %4, i64 8
  store ptr %2, ptr %5, align 8
  %6 = getelementptr inbounds i8, ptr %4, i64 16
  call fastcc void @_ZN32pxrInternal_v0_24__pxrReserved__12_GLOBAL__N_124_JoinPackageRelativePathIPKPKNSt7__cxx1112basic_stringIcSt11char_traitsIcESaIcEEEEES7_T_SC_(ptr dead_on_unwind noalias writable align 8 %0, ptr noundef nonnull %4, ptr noundef nonnull %6)
  ret void
}